; Function Attrs: nounwind uwtable
define void @Java_sun_security_pkcs11_wrapper_PKCS11_C_1Logout(ptr noundef %0, ptr noundef %1, i64 noundef %2) local_unnamed_addr #0 {
  %4 = tail call ptr @getFunctionList(ptr noundef %0, ptr noundef %1) #4
  %5 = icmp eq ptr %4, null
  br i1 %5, label %11, label %6

6:                                                ; preds = %3
  %7 = getelementptr inbounds i8, ptr %4, i64 160
  %8 = load ptr, ptr %7, align 8
  %9 = tail call i64 %8(i64 noundef %2) #4
  %10 = tail call i64 @ckAssertReturnValueOK(ptr noundef %0, i64 noundef %9) #4
  br label %11

11:                                               ; preds = %3, %6
  ret void
}